target datalayout = "e-m:e-p270:32:32-p271:32:32-p272:64:64-i64:64-i128:128-f80:128-n8:16:32:64-S128"
target triple = "x86_64-pc-linux-gnu"

%struct.AVFormatContext = type { ptr, ptr, ptr, ptr, ptr, i32, i32, ptr, i32, ptr, i32, ptr, ptr, i64, i64, i64, i32, i32, i32, i64, i64, ptr, i32, i32, ptr, i32, i32, i32, i32, ptr, i64, i32, i32, %struct.AVIOInterruptCB, i32, i32, i32, i32, i64, i32, i32, i32, i32, i32, i32, i32, i32, i32, i32, i32, i32, i64, i32, i32, i32, i32, i32, ptr, ptr, ptr, ptr, i32, ptr, ptr, ptr, ptr, i32, ptr, ptr, i64, ptr, ptr, ptr, i64 }
%struct.AVIOInterruptCB = type { ptr, ptr }
%struct.WebpContext = type { ptr, i32, ptr, i32, i32, i32 }

; Function Attrs: alwaysinline nounwind uwtable
define internal i64 @avio_tell(ptr noundef %0) #3 {
  %2 = alloca ptr, align 8
  store ptr %0, ptr %2, align 8, !tbaa !65
  %3 = load ptr, ptr %2, align 8, !tbaa !65
  %4 = call i64 @avio_seek(ptr noundef %3, i64 noundef 0, i32 noundef 1)
  ret i64 %4
}

; Function Attrs: nounwind uwtable
define internal i32 @webp_write_trailer(ptr noundef %0) #0 {
  %2 = alloca i32, align 4
  %3 = alloca ptr, align 8
  %4 = alloca i32, align 4
  %5 = alloca ptr, align 8
  %6 = alloca i32, align 4
  %7 = alloca i32, align 4
  store ptr %0, ptr %3, align 8, !tbaa !4
  call void @llvm.lifetime.start.p0(i64 4, ptr %4) #4
  call void @llvm.lifetime.start.p0(i64 8, ptr %5) #4
  %8 = load ptr, ptr %3, align 8, !tbaa !4
  %9 = getelementptr inbounds nuw %struct.AVFormatContext, ptr %8, i32 0, i32 3
  %10 = load ptr, ptr %9, align 8, !tbaa !11
  store ptr %10, ptr %5, align 8, !tbaa !28
  %11 = load ptr, ptr %5, align 8, !tbaa !28
  %12 = getelementptr inbounds nuw %struct.WebpContext, ptr %11, i32 0, i32 5
  %13 = load i32, ptr %12, align 8, !tbaa !36
  %14 = icmp ne i32 %13, 0
  br i1 %14, label %15, label %35

15:                                               ; preds = %1
  %16 = load ptr, ptr %5, align 8, !tbaa !28
  %17 = getelementptr inbounds nuw %struct.WebpContext, ptr %16, i32 0, i32 3
  %18 = load i32, ptr %17, align 8, !tbaa !44
  %19 = icmp ne i32 %18, 0
  br i1 %19, label %20, label %34

20:                                               ; preds = %15
  %21 = load ptr, ptr %3, align 8, !tbaa !4
  %22 = getelementptr inbounds nuw %struct.AVFormatContext, ptr %21, i32 0, i32 4
  %23 = load ptr, ptr %22, align 8, !tbaa !38
  %24 = call i64 @avio_seek(ptr noundef %23, i64 noundef 42, i32 noundef 0)
  %25 = icmp eq i64 %24, 42
  br i1 %25, label %26, label %33

26:                                               ; preds = %20
  %27 = load ptr, ptr %3, align 8, !tbaa !4
  %28 = getelementptr inbounds nuw %struct.AVFormatContext, ptr %27, i32 0, i32 4
  %29 = load ptr, ptr %28, align 8, !tbaa !38
  %30 = load ptr, ptr %5, align 8, !tbaa !28
  %31 = getelementptr inbounds nuw %struct.WebpContext, ptr %30, i32 0, i32 3
  %32 = load i32, ptr %31, align 8, !tbaa !44
  call void @avio_wl16(ptr noundef %29, i32 noundef %32)
  br label %33

33:                                               ; preds = %26, %20
  br label %34

34:                                               ; preds = %33, %15
  br label %75

35:                                               ; preds = %1
  call void @llvm.lifetime.start.p0(i64 4, ptr %6) #4
  %36 = load ptr, ptr %3, align 8, !tbaa !4
  %37 = call i32 @flush(ptr noundef %36, i32 noundef 1, i64 noundef -9223372036854775808)
  store i32 %37, ptr %6, align 4, !tbaa !35
  %38 = icmp slt i32 %37, 0
  br i1 %38, label %39, label %41

39:                                               ; preds = %35
  %40 = load i32, ptr %6, align 4, !tbaa !35
  store i32 %40, ptr %2, align 4
  store i32 1, ptr %7, align 4
  br label %72

41:                                               ; preds = %35
  %42 = load i32, ptr %6, align 4, !tbaa !35
  %43 = icmp ne i32 %42, 0
  br i1 %43, label %71, label %44

44:                                               ; preds = %41
  %45 = load ptr, ptr %3, align 8, !tbaa !4
  %46 = getelementptr inbounds nuw %struct.AVFormatContext, ptr %45, i32 0, i32 4
  %47 = load ptr, ptr %46, align 8, !tbaa !38
  %48 = call i64 @avio_tell(ptr noundef %47)
  %49 = trunc i64 %48 to i32
  store i32 %49, ptr %4, align 4, !tbaa !35
  %50 = load i32, ptr %4, align 4, !tbaa !35
  %51 = icmp uge i32 %50, 8
  br i1 %51, label %52, label %70

52:                                               ; preds = %44
  %53 = load ptr, ptr %3, align 8, !tbaa !4
  %54 = getelementptr inbounds nuw %struct.AVFormatContext, ptr %53, i32 0, i32 4
  %55 = load ptr, ptr %54, align 8, !tbaa !38
  %56 = call i64 @avio_seek(ptr noundef %55, i64 noundef 4, i32 noundef 0)
  %57 = icmp eq i64 %56, 4
  br i1 %57, label %58, label %70

58:                                               ; preds = %52
  %59 = load ptr, ptr %3, align 8, !tbaa !4
  %60 = getelementptr inbounds nuw %struct.AVFormatContext, ptr %59, i32 0, i32 4
  %61 = load ptr, ptr %60, align 8, !tbaa !38
  %62 = load i32, ptr %4, align 4, !tbaa !35
  %63 = sub i32 %62, 8
  call void @avio_wl32(ptr noundef %61, i32 noundef %63)
  %64 = load ptr, ptr %3, align 8, !tbaa !4
  %65 = getelementptr inbounds nuw %struct.AVFormatContext, ptr %64, i32 0, i32 4
  %66 = load ptr, ptr %65, align 8, !tbaa !38
  %67 = load i32, ptr %4, align 4, !tbaa !35
  %68 = zext i32 %67 to i64
  %69 = call i64 @avio_seek(ptr noundef %66, i64 noundef %68, i32 noundef 0)
  br label %70

70:                                               ; preds = %58, %52, %44
  br label %71

71:                                               ; preds = %70, %41
  store i32 0, ptr %7, align 4
  br label %72

72:                                               ; preds = %71, %39
  call void @llvm.lifetime.end.p0(i64 4, ptr %6) #4
  %73 = load i32, ptr %7, align 4
  switch i32 %73, label %76 [
    i32 0, label %74
  ]

74:                                               ; preds = %72
  br label %75

75:                                               ; preds = %74, %34
  store i32 0, ptr %2, align 4
  store i32 1, ptr %7, align 4
  br label %76

76:                                               ; preds = %75, %72
  call void @llvm.lifetime.end.p0(i64 8, ptr %5) #4
  call void @llvm.lifetime.end.p0(i64 4, ptr %4) #4
  %77 = load i32, ptr %2, align 4
  ret i32 %77
}