; Function Attrs: nounwind uwtable
define internal noundef i32 @webp_write_trailer(ptr noundef readonly captures(none) %0) #0 {
  %2 = getelementptr inbounds nuw i8, ptr %0, i64 24
  %3 = load ptr, ptr %2, align 8, !tbaa !4
  %4 = getelementptr inbounds nuw i8, ptr %3, i64 32
  %5 = load i32, ptr %4, align 8, !tbaa !31
  %.not = icmp eq i32 %5, 0
  br i1 %.not, label %17, label %6

6:                                                ; preds = %1
  %7 = getelementptr inbounds nuw i8, ptr %3, i64 24
  %8 = load i32, ptr %7, align 8, !tbaa !39
  %.not21 = icmp eq i32 %8, 0
  br i1 %.not21, label %35, label %9

9:                                                ; preds = %6
  %10 = getelementptr inbounds nuw i8, ptr %0, i64 32
  %11 = load ptr, ptr %10, align 8, !tbaa !34
  %12 = tail call i64 @avio_seek(ptr noundef %11, i64 noundef 42, i32 noundef 0) #4
  %13 = icmp eq i64 %12, 42
  br i1 %13, label %14, label %35

14:                                               ; preds = %9
  %15 = load ptr, ptr %10, align 8, !tbaa !34
  %16 = load i32, ptr %7, align 8, !tbaa !39
  tail call void @avio_wl16(ptr noundef %15, i32 noundef %16) #4
  br label %35

17:                                               ; preds = %1
  %18 = tail call fastcc i32 @flush(ptr noundef nonnull %0, i32 noundef 1, i64 noundef -9223372036854775808)
  %.not20 = icmp eq i32 %18, 0
  br i1 %.not20, label %19, label %35

19:                                               ; preds = %17
  %20 = getelementptr inbounds nuw i8, ptr %0, i64 32
  %21 = load ptr, ptr %20, align 8, !tbaa !34
  %22 = tail call i64 @avio_seek(ptr noundef %21, i64 noundef 0, i32 noundef 1) #4
  %23 = trunc i64 %22 to i32
  %24 = icmp ugt i32 %23, 7
  br i1 %24, label %25, label %35

25:                                               ; preds = %19
  %26 = load ptr, ptr %20, align 8, !tbaa !34
  %27 = tail call i64 @avio_seek(ptr noundef %26, i64 noundef 4, i32 noundef 0) #4
  %28 = icmp eq i64 %27, 4
  br i1 %28, label %29, label %35

29:                                               ; preds = %25
  %30 = load ptr, ptr %20, align 8, !tbaa !34
  %31 = add i32 %23, -8
  tail call void @avio_wl32(ptr noundef %30, i32 noundef %31) #4
  %32 = load ptr, ptr %20, align 8, !tbaa !34
  %33 = and i64 %22, 4294967295
  %34 = tail call i64 @avio_seek(ptr noundef %32, i64 noundef %33, i32 noundef 0) #4
  br label %35

35:                                               ; preds = %9, %14, %6, %17, %29, %25, %19
  ret i32 0
}